; Function Attrs: mustprogress nofree nounwind uwtable
define void @_ZN14arrow_vendored17double_conversion6Bignum9AddUInt64Em(ptr noundef nonnull align 4 captures(none) dereferenceable(516) %0, i64 noundef %1) local_unnamed_addr #5 align 2 {
  %3 = alloca %"class.arrow_vendored::double_conversion::Bignum", align 4
  %4 = icmp eq i64 %1, 0
  br i1 %4, label %11, label %.lr.ph.i

.lr.ph.i:                                         ; preds = %2
  call void @llvm.lifetime.start.p0(i64 516, ptr nonnull %3) #11
  %5 = getelementptr inbounds nuw i8, ptr %3, i64 4
  store i32 0, ptr %3, align 4
  br label %6

6:                                                ; preds = %6, %.lr.ph.i
  %indvars.iv.i = phi i64 [ 0, %.lr.ph.i ], [ %indvars.iv.next.i, %6 ]
  %.057.i = phi i64 [ %1, %.lr.ph.i ], [ %10, %6 ]
  %7 = trunc i64 %.057.i to i32
  %8 = and i32 %7, 268435455
  %9 = getelementptr inbounds nuw [128 x i32], ptr %5, i64 0, i64 %indvars.iv.i
  store i32 %8, ptr %9, align 4, !tbaa !9
  %10 = lshr i64 %.057.i, 28
  %indvars.iv.next.i = add nuw nsw i64 %indvars.iv.i, 1
  %.not.i = icmp ult i64 %.057.i, 268435456
  br i1 %.not.i, label %_ZN14arrow_vendored17double_conversion6Bignum12AssignUInt64Em.exit, label %6, !llvm.loop !11

_ZN14arrow_vendored17double_conversion6Bignum12AssignUInt64Em.exit: ; preds = %6
  %indvars = trunc i64 %indvars.iv.next.i to i16
  store i16 %indvars, ptr %3, align 4, !tbaa !3
  call void @_ZN14arrow_vendored17double_conversion6Bignum9AddBignumERKS1_(ptr noundef nonnull align 4 dereferenceable(516) %0, ptr noundef nonnull align 4 dereferenceable(516) %3)
  call void @llvm.lifetime.end.p0(i64 516, ptr nonnull %3) #11
  br label %11

11:                                               ; preds = %2, %_ZN14arrow_vendored17double_conversion6Bignum12AssignUInt64Em.exit
  ret void
}